(dp1
L24106704085772188594219712864937814639375559261093057687384694925705663551837005237077741339366420542101995973662288738291101835597443813350093186371945837859845189927488887518587315586818073441802809213996913991135805202779482119145824860763902441136692616440089017881739424418477589352694388001194406555939766747888884529766425608675067314752240671425816710314891061112965637900102217992762185292080161538803980526922348526801595251157529444839926353089540087623873240038755742856299974733332661762288672267695816987296870063282140784004502381317786222968348847078447465731904512550209877500678489931301663841412669L
(dp2
S'kbits'
p3
I1022
sS'e'
I65537
sS'd0'
p4
L26924668165623110752529119818940743783705899028723749664925698687269325614956312251945472009222771726514612864349295108353080952160234529165056139681468969352665077997585334394562632241945821433477684274987578352127738490870525136776199822923867147652587577999528274840980163926752186400564939445931142281673L
sS'N'
L24106704085772188594219712864937814639375559261093057687384694925705663551837005237077741339366420542101995973662288738291101835597443813350093186371945837859845189927488887518587315586818073441802809213996913991135805202779482119145824860763902441136692616440089017881739424418477589352694388001194406555939766747888884529766425608675067314752240671425816710314891061112965637900102217992762185292080161538803980526922348526801595251157529444839926353089540087623873240038755742856299974733332661762288672267695816987296870063282140784004502381317786222968348847078447465731904512550209877500678489931301663841412669L
ssL18704287852615292408782268840276341661697780755097543688123502782189248036677955217337940809187223845108355584144510972646104358029743499076095847105751165754411644036380534772534694777066490776414160749420461858830769332925058898427192174727086081673849218643059348156956228674281598381750265185279955167889255751419109221175583397688749997238181398110755129177795141422721249545135896606768429282893303673774115476865078580967892844404644736404981875898213553306911695330219148425131218526860166189217736888049597163392731210372902594076418863580320426647977788524479235901715906600678753251480663889516484595751853L
(dp5
S'kbits'
p6
I1021
sS'e'
I65537
sS'd0'
p7
L10298108982209577840794469469447155712325807068480586406189423053279108179293793226037873119254069744840402875758836920693119108134377867197453641268353114148987012116382092726684903115019134957640887004674045585137046814760827508000960496481575574462693213435687841894434131940377545006486322678980739963121L
sS'N'
L18704287852615292408782268840276341661697780755097543688123502782189248036677955217337940809187223845108355584144510972646104358029743499076095847105751165754411644036380534772534694777066490776414160749420461858830769332925058898427192174727086081673849218643059348156956228674281598381750265185279955167889255751419109221175583397688749997238181398110755129177795141422721249545135896606768429282893303673774115476865078580967892844404644736404981875898213553306911695330219148425131218526860166189217736888049597163392731210372902594076418863580320426647977788524479235901715906600678753251480663889516484595751853L
ssL23297529935497421126224862834177456533772641533661882700572085964806673757854371541043846854598218686139872065651877084440497174994918614353108110535488312363344297445277197606661992710784845875571089224086271458533140495424919922685733203455937170117124858647816111188923023236027609929863873991224994759760243707547953575940450160520110144968766004939292059891570019962300737134646437438897482301129905362006842548817700967968135090843668572906740752729682165661770445132338609519744806463631239581457118414361888627960506594979856149187697701462170526462597208323511610981580638486880701165978222056350502064165419L
(dp8
S'kbits'
p9
I1022
sS'e'
I65537
sS'd0'
p10
L8276364930453381474527723718033680628022584139446609202725312198170880637720064960300379404188245506329685891375320689226570381068925300834721470656869814508784047960381039408482018811471081730180850662659916764634799389445858255564749541240901098665678206212563411020215540503303054930341196539432068152021L
sS'N'
L23297529935497421126224862834177456533772641533661882700572085964806673757854371541043846854598218686139872065651877084440497174994918614353108110535488312363344297445277197606661992710784845875571089224086271458533140495424919922685733203455937170117124858647816111188923023236027609929863873991224994759760243707547953575940450160520110144968766004939292059891570019962300737134646437438897482301129905362006842548817700967968135090843668572906740752729682165661770445132338609519744806463631239581457118414361888627960506594979856149187697701462170526462597208323511610981580638486880701165978222056350502064165419L
ssL24769378818682156511754799446302370582437213113662889850894319366280241176965552539328155308135298205582264630594159168091336618204144720699342978515023841498756688163552588033679796852663677304762126470134785622876495284610761432798479053143982602284898585358891930206131540286189413057121861658482504402736169187363699935152977836965987805146018177398848809915222240179010925096839676387061565697023697695121076226670015172895080656785784323473014955049879569479183727944472885343090822758226399062057037503488432387071889017036783028255364566627967341785236292773150525691188200505510075823124367409091764969701781L
(dp11
S'kbits'
p12
I1022
sS'e'
I65537
sS'd0'
p13
L41408517537473530605614884296091909417132995555955971385298019148826532085572412696489140474610538047677819846294286040108585302233726413076501663915520715713760382576570586046517725848683861369137016382682341671572326203823631514035094779534567068932689417563544703599510980879856981692534271177482062461433L
sS'N'
L24769378818682156511754799446302370582437213113662889850894319366280241176965552539328155308135298205582264630594159168091336618204144720699342978515023841498756688163552588033679796852663677304762126470134785622876495284610761432798479053143982602284898585358891930206131540286189413057121861658482504402736169187363699935152977836965987805146018177398848809915222240179010925096839676387061565697023697695121076226670015172895080656785784323473014955049879569479183727944472885343090822758226399062057037503488432387071889017036783028255364566627967341785236292773150525691188200505510075823124367409091764969701781L
ssL23339058379302560703551793210655695991353745457718201912218051453925417157267377857405682482151680604782636604147059319539905156221350653154921570440514230038492132123758019086606772270106478312576188016826570338205597697462529265703341395954573419307958961918490615814650944426359567137806794277585888562684170942858695311948267915662334151396802437663206985336492048922424984558313325570383493403894026128186864258310232984957623487247446085404497788506950252423273165906249385375963767137453103476070466776457825467034973897653205465688855250122946646506595135195182058859270545845397394888035113444367595402369757L
(dp14
S'kbits'
p15
I1021
sS'e'
I65537
sS'd0'
p16
L1817073543413349360364813406046259244746274832632734363126443706361255819987769582681433551495461969403245404644244704617133235456285879280415383616219023760661173942305843226435884770759169796338769324766837864774233169757795059773088794818632110782680149063058456860651624745673133544084295551171972222705L
sS'N'
L23339058379302560703551793210655695991353745457718201912218051453925417157267377857405682482151680604782636604147059319539905156221350653154921570440514230038492132123758019086606772270106478312576188016826570338205597697462529265703341395954573419307958961918490615814650944426359567137806794277585888562684170942858695311948267915662334151396802437663206985336492048922424984558313325570383493403894026128186864258310232984957623487247446085404497788506950252423273165906249385375963767137453103476070466776457825467034973897653205465688855250122946646506595135195182058859270545845397394888035113444367595402369757L
ssL19805677969174248133656914911856577649720862538467038021140444392130209535290031365877727319114842590859397444575869562744510947389375975584541341628111696154949144016707671815731081176206119870516185202402884676249224640670895108481063322778969544297221408276982276088962896683657749095117504529826177018541317063028006802672654799486197665028766667642863775812779510880265741553508264018349527709702242614061327392475286487286609642409192529536278230760561963354300448363266110456079653050816695325468517123427665347588134379994599737059526440885032415010402025800363293721374218651103669846104104707104016624315811L
(dp17
S'kbits'
p18
I1022
sS'e'
I65537
sS'd0'
p19
L27555374947299823115040637464376787483957917117406084977722057067722724308185322385180039326990504769136579478711387340376279963199658092407653972156377311700403304299779265830904947780196830840194829536519146236830484441927510954349456067354330722091548925538164192648576715225307645370123470581688043242597L
sS'N'
L19805677969174248133656914911856577649720862538467038021140444392130209535290031365877727319114842590859397444575869562744510947389375975584541341628111696154949144016707671815731081176206119870516185202402884676249224640670895108481063322778969544297221408276982276088962896683657749095117504529826177018541317063028006802672654799486197665028766667642863775812779510880265741553508264018349527709702242614061327392475286487286609642409192529536278230760561963354300448363266110456079653050816695325468517123427665347588134379994599737059526440885032415010402025800363293721374218651103669846104104707104016624315811L
ssL18124287714289743402921860391938805802906944341932734190758891000301642805787283973340941727556656120675062646859767074420729417460928052041684549291186350486192702257116139093095560252628248810430776502067798029785450370598920639213752554771109198941299551413244695219665502860981447997386724836679678700054291239269452259217963023624019166322528369986585547798712270732453471567989970215353656991131743368962985180857670259672216233279178569773887659929545184964755007100694401487078369858058626841614493546486096791429938543766723990477600948917835053748395083198627876893900000302394013137910547285785102127285297L
(dp20
S'kbits'
p21
I1023
sS'e'
I65537
sS'd0'
p22
L75073650098380961323202704021544554519284902416668772259175451675556891916363053991027297858326676404892335030893143225391683584849375989595122175116007435929920715901535647100257019132659969949286372271528707864913138194778633591726519156781503220972221389034460310128716838473395934217430038968194976982337L
sS'N'
L18124287714289743402921860391938805802906944341932734190758891000301642805787283973340941727556656120675062646859767074420729417460928052041684549291186350486192702257116139093095560252628248810430776502067798029785450370598920639213752554771109198941299551413244695219665502860981447997386724836679678700054291239269452259217963023624019166322528369986585547798712270732453471567989970215353656991131743368962985180857670259672216233279178569773887659929545184964755007100694401487078369858058626841614493546486096791429938543766723990477600948917835053748395083198627876893900000302394013137910547285785102127285297L
ssL24566510364098670494790891179071122370598411209683371452379197069421891408528039554728677381332719548073369251893492716588879476964746070001117298646898325100198521740135710132042781163345151978799675342126091484216140453183047531437610678609780269282708071080563100197715922041841963406526525220975966462353650761494576403673722138535279259771967499402210119297378782584951047515088558389970597651907917916021345019761893075301364794435180731836089886506775246527183888997083582971568706440051595236040271677123767176811787800310564664723198753577018936711655146073273075205124654996671394523856844546705860632471621L
(dp23
S'kbits'
p24
I1022
sS'e'
I65537
sS'd0'
p25
L11843568939213960739789347048567235019507560286242350852468780581894796349260004109925118902678639926634134378703428098791176465370018531717645479052919005061754008522888720449332795523707992234293793318250311985497896809477666124920771566505315007359250490282745277123231628016810616350237299789274853912937L
sS'N'
L24566510364098670494790891179071122370598411209683371452379197069421891408528039554728677381332719548073369251893492716588879476964746070001117298646898325100198521740135710132042781163345151978799675342126091484216140453183047531437610678609780269282708071080563100197715922041841963406526525220975966462353650761494576403673722138535279259771967499402210119297378782584951047515088558389970597651907917916021345019761893075301364794435180731836089886506775246527183888997083582971568706440051595236040271677123767176811787800310564664723198753577018936711655146073273075205124654996671394523856844546705860632471621L
ssL24820945099252846674365840753407691922573109339637952210606105141730988844461804395636694526904254657874533754751190517616227573300405911489670627208104249557006886292748198202890744918142075499881321915236749766275091593465572263361858729202555960174134799463786436522705207356014099148394309119494501322219451386491128426297296206455046639865405706175520114285853824856859215049083553623688116679159380997573767560584667320646924154801099613666607357205400450787084316211209216272588340485334518163734839520326555423427687157256028970547995659475173102126483879559108943105075499044738508470188434880413931678282321L
(dp26
S'kbits'
p27
I1023
sS'e'
I65537
sS'd0'
p28
L2003850199650399745121458269418510104421554869670593437898445169378310912070119777797691506263456998246398953155161455596011171905362236673295860204084082492133486434024608331028779991441948077442670235890376290795745845032653267610404762334907198534264301230432557881600725314412640959666606724113879863717L
sS'N'
L24820945099252846674365840753407691922573109339637952210606105141730988844461804395636694526904254657874533754751190517616227573300405911489670627208104249557006886292748198202890744918142075499881321915236749766275091593465572263361858729202555960174134799463786436522705207356014099148394309119494501322219451386491128426297296206455046639865405706175520114285853824856859215049083553623688116679159380997573767560584667320646924154801099613666607357205400450787084316211209216272588340485334518163734839520326555423427687157256028970547995659475173102126483879559108943105075499044738508470188434880413931678282321L
ssL22886501935336065182326527443310749425171647238626282413401383196346489429704102057721649923432485366546493527638108629871871958769468030807810941317738572491741321770829422490153900877578213060028200750443514516859983684513695362081632707707911149834332602372979434088912942912851938670551379551225494633726058082769820094808639196295355917935311972995448897110349031393317379557438029524114635337222762331676438910234927812848930884968824910365642189803231791506971024009754951423293404469711697860605662568095139192065818762238142932255427846376827236900905886912090980882932064525237833246818119279930638745034749L
(dp29
S'kbits'
p30
I1022
sS'e'
I65537
sS'd0'
p31
L34853327299025755595075304279734536658859779367199829099864542202921236791274445811280627334793831109517046902319361193799141879670245490634859470527482992704459154837275611693065523725040305710310173322460987652380350573853183919952409167226508053603975272068685866320882516555872353263491319823526487495001L
sS'N'
L22886501935336065182326527443310749425171647238626282413401383196346489429704102057721649923432485366546493527638108629871871958769468030807810941317738572491741321770829422490153900877578213060028200750443514516859983684513695362081632707707911149834332602372979434088912942912851938670551379551225494633726058082769820094808639196295355917935311972995448897110349031393317379557438029524114635337222762331676438910234927812848930884968824910365642189803231791506971024009754951423293404469711697860605662568095139192065818762238142932255427846376827236900905886912090980882932064525237833246818119279930638745034749L
ssL23931911885594390339248531409248355310408296598933712045735733051465804347235273371114322264413767953602124431188180441816317923754104999835038130181169103697162872738187239690451310509835600945840433762345407110690876879343717950778703000026859736759312817157687390124445295768448437133145890642618989721275349429286126783127764152955086649576834759368644083699879931769478822715458044678442323292466576530891248486238135781776103915913916577052072912046662538490861312255256196434174473335587198447221750392197837847369547245706159717421408319972689582971164715746407777051969750189078034504490516399540126123599669L
(dp32
S'kbits'
p33
I1023
sS'e'
I65537
sS'd0'
p34
L18666787527646534582996850954763492757932260746210232660083513282309592593700497426929639624073703770507027448888351542296224911341175423266978392937935491971584152157772171524326367473341548604260565853133474770611357982696818959141894580065985463738687432936875520548733275655759342728065769787190358980121L
sS'N'
L23931911885594390339248531409248355310408296598933712045735733051465804347235273371114322264413767953602124431188180441816317923754104999835038130181169103697162872738187239690451310509835600945840433762345407110690876879343717950778703000026859736759312817157687390124445295768448437133145890642618989721275349429286126783127764152955086649576834759368644083699879931769478822715458044678442323292466576530891248486238135781776103915913916577052072912046662538490861312255256196434174473335587198447221750392197837847369547245706159717421408319972689582971164715746407777051969750189078034504490516399540126123599669L
ssL18083582525764876670860878812472303511641991850405230021879033704926286833468547148425539125557425378782932426988356300994378793670928367939599962808988913595891652890384375980778030322698630094334450592896520118357095768508568526791899572271204797775920246807749188859343341808443636178157269623847332706498296011723754813164070045120355822820993285177752538010805535455292291235147404755413799431856812769485087250233342278912674557836062257200215194196980934701038210431108867998911146027909507227014965122404494201165985964268628610800882621974330776299076099505299400327640109203054465659040796338262160055768917L
(dp35
S'kbits'
p36
I1022
sS'e'
I65537
sS'd0'
p37
L35937948078341690912644400831358243891137953754706849542910504081446998774115650590259791335638708328131216832039139350879765785923423276287860694894292459772678918226825660743120642228382915473529390180353933614316628197844867503903411807439582241519751531246335176053677763798052886858425262029472105697041L
sS'N'
L18083582525764876670860878812472303511641991850405230021879033704926286833468547148425539125557425378782932426988356300994378793670928367939599962808988913595891652890384375980778030322698630094334450592896520118357095768508568526791899572271204797775920246807749188859343341808443636178157269623847332706498296011723754813164070045120355822820993285177752538010805535455292291235147404755413799431856812769485087250233342278912674557836062257200215194196980934701038210431108867998911146027909507227014965122404494201165985964268628610800882621974330776299076099505299400327640109203054465659040796338262160055768917L
ssL23405596738497813459074676394730149537213503565883989772569344858611383373264902370458080821907770336722808447712594932013590302263811366854851457270969085670376306591372408760545396743269346191267268808682300252164387404047694232177116159719364423468601466416955238584704961646382105650815958744525823977325503465030882233924210402642554482568206898275922245349449450433482328674894116541143830466798801950597029326168294340013061380636051676601188590478775630120678636430467992098353471847783224424258742433942504541400854587509994683838997785037049573277275637732694284434497228567107766322834964092550820921340273L
(dp38
S'kbits'
p39
I1020
sS'e'
I65537
sS'd0'
p40
L3042191627923008447341369036726065467736060391034769933180201022669955677991684766013841295519563728336053605915364840520454556895303255058985931063205704503121602828063951505085061930473073493650910040157671991427361300714306774726056083914207770723170819212879736912586930621791309502694424473105632985261L
sS'N'
L23405596738497813459074676394730149537213503565883989772569344858611383373264902370458080821907770336722808447712594932013590302263811366854851457270969085670376306591372408760545396743269346191267268808682300252164387404047694232177116159719364423468601466416955238584704961646382105650815958744525823977325503465030882233924210402642554482568206898275922245349449450433482328674894116541143830466798801950597029326168294340013061380636051676601188590478775630120678636430467992098353471847783224424258742433942504541400854587509994683838997785037049573277275637732694284434497228567107766322834964092550820921340273L
ssL24113964508454406543819628841558627998313766663655466632544751086217805878339953506678099393325950536034998909788921089613205200836445133993582991992768787273293167413879529818168291788408601488215700695900509164440023682538694779008723770883530225682107808529180938442172046366481407598988949933267604976342763282130357019759875691648793833875607147761923276261409986576022021781959843938744428099140969662834366804042929631441566759498334201906657460350778132498958589824986953314743956058113373709256125660599861943112415287636810237511342185450347407534909246648431946265767152847593038047457470916723531826680297L
(dp41
S'kbits'
p42
I1020
sS'e'
I65537
sS'd0'
p43
L6558104700592635902537893760310958666212062994251812820526129678652685784689524449533498922449635104911252919188668522314385257349043661210079898712801316386288075633145545583153685097980126726272774069907474456795439619094037183091674583112396515472650359228249900960283064436077997686536599534585657854973L
sS'N'
L24113964508454406543819628841558627998313766663655466632544751086217805878339953506678099393325950536034998909788921089613205200836445133993582991992768787273293167413879529818168291788408601488215700695900509164440023682538694779008723770883530225682107808529180938442172046366481407598988949933267604976342763282130357019759875691648793833875607147761923276261409986576022021781959843938744428099140969662834366804042929631441566759498334201906657460350778132498958589824986953314743956058113373709256125660599861943112415287636810237511342185450347407534909246648431946265767152847593038047457470916723531826680297L
ssL20190207642301907906145024260206435123311785301843658581584127934191488933876179197821652069200153125400322249925894599680005622963705214437962076576500432115374088475249078504373713484350604275262911576396602006974903678857352814413882885491722924988498269319674511467685458419075144292352449438879459860501729298673664502760211663648034264117714877413226543671114353264673413672438063021154551016337704519304070133620204419930792993412724652714805757557368622494490416202101379748663292692934136817029207310661849514303236790977988968449541639489854839134459999536777563637126464517689642371859995933211227109583287L
(dp44
S'kbits'
p45
I1023
sS'e'
I65537
sS'd0'
p46
L64522072499437347150705035870682316569906971603529968955390360766174444225911675513977593890724505307497929510118697807875357426214458855522068652310924539791718172697142604294515753901525516352261210869617693917448087878662252694089220776300756912411285814024752683501628311300191417178305880512531501124905L
sS'N'
L20190207642301907906145024260206435123311785301843658581584127934191488933876179197821652069200153125400322249925894599680005622963705214437962076576500432115374088475249078504373713484350604275262911576396602006974903678857352814413882885491722924988498269319674511467685458419075144292352449438879459860501729298673664502760211663648034264117714877413226543671114353264673413672438063021154551016337704519304070133620204419930792993412724652714805757557368622494490416202101379748663292692934136817029207310661849514303236790977988968449541639489854839134459999536777563637126464517689642371859995933211227109583287L
ssL24235125585166720420151523797994810075167436761211567517935423223049200394010039255887058170730174713727967551908593837808567672707806300154375696695927577305137487041239526483562949707203361062906033271093838412419139158075515511753604134181521888031305407049229821056899108538850784872702490876291270660887080825151951343674711200095985900046696306546375460872955682163111937910986229402195999178496999062800577124205313984288741750598366790028293602514435201378749647689037273439973713409916074193841756035655352520902566922939356273165284991249380589047270907428845201451864041556745179568014867683788185575884497L
(dp47
S'kbits'
p48
I1022
sS'e'
I65537
sS'd0'
p49
L40261173368567374253419807521144249924750339525018207072671695239098161145648390495533106501510169898943846557918333684917930521953295772180828439807048789941233191760195500874420072763967725190051973032954871312572565005060249153167933616620596826089322839573672393407060350284449214271175977259683613381945L
sS'N'
L24235125585166720420151523797994810075167436761211567517935423223049200394010039255887058170730174713727967551908593837808567672707806300154375696695927577305137487041239526483562949707203361062906033271093838412419139158075515511753604134181521888031305407049229821056899108538850784872702490876291270660887080825151951343674711200095985900046696306546375460872955682163111937910986229402195999178496999062800577124205313984288741750598366790028293602514435201378749647689037273439973713409916074193841756035655352520902566922939356273165284991249380589047270907428845201451864041556745179568014867683788185575884497L
ssL25862770293599819004690517402377207028499850875911177310863778851953417188905733944683168607629451665748745488700587036307007336635969731305777713590323728769298372282749496378236841022553413792948891372464104576262298915149566195242259288886429371602197552530687137230597951713292466727622368771777301200615005693425650416254736871748431890570084508570619069138963851701444219414287673316643237944383552353170768580778931332942703111457033891866292568886891825297741437182529556406503866095262940194297778786047175755435506825174313508654623073813761034972714357060842133978712211849148238406685346333993216597173289L
(dp50
S'kbits'
p51
I1022
sS'e'
I65537
sS'd0'
p52
L30660573572972858710842156021877768007026338315594521720813456835540011639688976445649523840544017074074997364024784203445783918630828260271417035538971857936398867534981577831515770534720892792108258907091934975049504787165947531345221971309475165052533726990767246489562672464257317856670160873930881160941L
sS'N'
L25862770293599819004690517402377207028499850875911177310863778851953417188905733944683168607629451665748745488700587036307007336635969731305777713590323728769298372282749496378236841022553413792948891372464104576262298915149566195242259288886429371602197552530687137230597951713292466727622368771777301200615005693425650416254736871748431890570084508570619069138963851701444219414287673316643237944383552353170768580778931332942703111457033891866292568886891825297741437182529556406503866095262940194297778786047175755435506825174313508654623073813761034972714357060842133978712211849148238406685346333993216597173289L
ssL19486054289090426738742915649130138291804726356311752645833665449341394857406425322650815798343825004494443422868648930078089144035896513478451607806279023972778958122342540121056206565624392342561862494548763997987387535348527396819911099537629155060543558201834851708480194485032378475233861072387923044178566543216656264078688572370514772627285647824169374494710673428309841182777093702903405568705219564465987321342398410991758941155336884770550318842111065227317790053715857290688326710382181649112980883132193668137399955519354473348448733003856210213683206719594775316578139199296718298041986098224698014857351L
(dp53
S'kbits'
p54
I1022
sS'e'
I65537
sS'd0'
p55
L24238998757118508811621843318967114413631521729314903637868210907998742954777301353286330029282059828340346669135266526871946819742158038984283893800301976453036942238401458613887605418853836873516542524491629228482052716964108007718995442380349247678747718494362763390168920399492089684711018508032387683273L
sS'N'
L19486054289090426738742915649130138291804726356311752645833665449341394857406425322650815798343825004494443422868648930078089144035896513478451607806279023972778958122342540121056206565624392342561862494548763997987387535348527396819911099537629155060543558201834851708480194485032378475233861072387923044178566543216656264078688572370514772627285647824169374494710673428309841182777093702903405568705219564465987321342398410991758941155336884770550318842111065227317790053715857290688326710382181649112980883132193668137399955519354473348448733003856210213683206719594775316578139199296718298041986098224698014857351L
ssL21913427667458627910280836895292702387531269628494331081884432388873054293023885584666456397761937477151122535753763514274945150886452457448986214481738579850251255247920690947334034212783002414757053362986409878379941233331930202666987374896864861589376916520194342472964430992840559462930796692547027876562131818166757849136244727784836268743467341089053144348577110168143648134412225946157128400463528818404786548190222943198398215438681059713919621131400638164259488945366413394842222267427530173148532939096668486416686312596876040128889164670739242611346609081478065184130729742777689199417777511153859729108401L
(dp56
S'kbits'
p57
I1022
sS'e'
I65537
sS'd0'
p58
L25612557825491577325421012888091479695487380710528981133042879899872674889265258085386204439884025003321044785402634156978357682591282088715147074014103054726928225377215199654034691019950857997621764449818942426648050871187697580632077603622830318925372393460794000865950115760533715341534800487778715905159L
sS'N'
L21913427667458627910280836895292702387531269628494331081884432388873054293023885584666456397761937477151122535753763514274945150886452457448986214481738579850251255247920690947334034212783002414757053362986409878379941233331930202666987374896864861589376916520194342472964430992840559462930796692547027876562131818166757849136244727784836268743467341089053144348577110168143648134412225946157128400463528818404786548190222943198398215438681059713919621131400638164259488945366413394842222267427530173148532939096668486416686312596876040128889164670739242611346609081478065184130729742777689199417777511153859729108401L
ssL20584027497656239645913358710744336401616297368705129023039141900982982403697516024754283105546131202810142194867688038915742710933006491862701160772390331275171822740637746324703986299347408322706164384276247899140087910434387127624837983448454083097227904254849416917857572733259651094430754317476186109823922458822528714182801974304293634395386877979439818105995938289914086775511952248127554544517913432333505293588837287432610896240880698205785899728293708871141908294580472315820595044071681165282873424627246665215740095871202888876511291839047981776500675582826926187246347033437431056596263861354505854337977L
(dp59
S'kbits'
p60
I1023
sS'e'
I65537
sS'd0'
p61
L7333823479686692308755897994569460738167867992335761932675817564742269311024048145909629952345810975787214811438664338242032639399437563919426044591360126929451272248464098759472420430815004244845225955363732308462387766824523009470599240327080853377172974272230382470955194088397616336375273002567762758971L
sS'N'
L20584027497656239645913358710744336401616297368705129023039141900982982403697516024754283105546131202810142194867688038915742710933006491862701160772390331275171822740637746324703986299347408322706164384276247899140087910434387127624837983448454083097227904254849416917857572733259651094430754317476186109823922458822528714182801974304293634395386877979439818105995938289914086775511952248127554544517913432333505293588837287432610896240880698205785899728293708871141908294580472315820595044071681165282873424627246665215740095871202888876511291839047981776500675582826926187246347033437431056596263861354505854337977L
ssL25330277747231756612769106496057245992336516703193398598113285501808751123531810008263092666116087694574704513335691451213061076455622130777981225676578972132193687810137645606455702987230297009408565595955446311192636788249979110121084574819345845512891580302166698423734475816152658149032751888425134019401447334236444071613598670275228754333869157750670342310818780637771115762630286641217639628324837594787124073510215546327740265997751837492250814514585919200051465061456160048304997000330265152003909507503511295786157427777121052299523450609799942615682467086438071517483760751348980574400446452710966499951809L
(dp62
S'kbits'
p63
I1019
sS'e'
I65537
sS'd0'
p64
L289234019101274317049673195106288378967644785253294650775100064206754234522964605416182215588853640062266929437176025305488800585647416197138360799446535525385432457182747418968940863221534300389616158451997191229407500260044738220723139408395426173467132793599006620334108114551287692429810369488066876469L
sS'N'
L25330277747231756612769106496057245992336516703193398598113285501808751123531810008263092666116087694574704513335691451213061076455622130777981225676578972132193687810137645606455702987230297009408565595955446311192636788249979110121084574819345845512891580302166698423734475816152658149032751888425134019401447334236444071613598670275228754333869157750670342310818780637771115762630286641217639628324837594787124073510215546327740265997751837492250814514585919200051465061456160048304997000330265152003909507503511295786157427777121052299523450609799942615682467086438071517483760751348980574400446452710966499951809L
ssL20077967133746934095853170877794569426554671220554303515369368731877361020128527808932431478050133240898208350372675556543157088730071568511219017620104512118665236688684039939956217688550973906776740358940162641706666133147809925228307706633514682343791925704231832736169514358646174887138422493193096262022732298682381438997399213573472458006023870441081088495993762195636414016683617987877251351622635922274609385981030083671688997095993325189472319278256888426614220487008746737594201533017197078779240208303677610757154206798108029546594768703921203638117936195138444419708839860440748897371395052638704182671733L
(dp65
S'kbits'
p66
I1022
sS'e'
I65537
sS'd0'
p67
L19175538159736110661376337935119420790736120092831000293453808792872455228676613398524666257998232967423034608927739340224283612864595978422832195425958982840382834797863088514410779371506777298477518235343779826363481903728977686206653306732848898578555234385755826041512237567053455335433724479801730069481L
sS'N'
L20077967133746934095853170877794569426554671220554303515369368731877361020128527808932431478050133240898208350372675556543157088730071568511219017620104512118665236688684039939956217688550973906776740358940162641706666133147809925228307706633514682343791925704231832736169514358646174887138422493193096262022732298682381438997399213573472458006023870441081088495993762195636414016683617987877251351622635922274609385981030083671688997095993325189472319278256888426614220487008746737594201533017197078779240208303677610757154206798108029546594768703921203638117936195138444419708839860440748897371395052638704182671733L
ssL22040432308811639230625747148822497423433016463220562735160655244953789059805143796722363379114206942601311101301265661631952927546730352623101974311659036175488032923542485420241787695837504655042011396192297208055780167610190986565807928373223983086539257978922638928810521498331667563201774549556397824637992005314238927713377055328505914889195182390707514734399102575730665796594552635926815790481231203665266288987535484230793280033693708360728603355736108616132310453141172199621847302693180526156179579209158409908832324678126900001914288958529867551315140517211426319321592108741650289008477505055487123922367L
(dp68
S'kbits'
p69
I1022
sS'e'
I65537
sS'd0'
p70
L16396601811326862918335905802410423473953163950711027591338654392978662407451650014359420418147369676057721256933289804654541699987553368713991874463352362268427409854140375507871985415530726172213600395072953592840503950745760765568700835178579313421912410968475271365197668679274818350769128598249467027873L
sS'N'
L22040432308811639230625747148822497423433016463220562735160655244953789059805143796722363379114206942601311101301265661631952927546730352623101974311659036175488032923542485420241787695837504655042011396192297208055780167610190986565807928373223983086539257978922638928810521498331667563201774549556397824637992005314238927713377055328505914889195182390707514734399102575730665796594552635926815790481231203665266288987535484230793280033693708360728603355736108616132310453141172199621847302693180526156179579209158409908832324678126900001914288958529867551315140517211426319321592108741650289008477505055487123922367L
ssL28104974437004992897022467202520618432818296908467973112378186608107529527156786978195597047749981280388024128563929020187211380253471270948491060583182620712063652703170999221160377780100077647737551145343407896114643714533475163002134464870690940053677053299545681081444297496614732992822450026641362203020797274174212717509184214540358898876003517910539453408351827135537614678706943177055970141834145289051517231681712094540950727597874938762458904345547079261157330926764453986991462763926480522528428711150473664185325378506630327491210755164340486615008359591281758665027847839670915848622965985718368450707861L
(dp71
S'kbits'
p72
I1022
sS'e'
I65537
sS'd0'
p73
L31415927541954352337562972561998438004576601724066807926387188872590453719569934601552917153725679389519719064958125783229311507787825390455901308661427435588813296979068654911657289712332958969119148369499774311385026405409507342847701444995942658037542522773936630301937745707228089993713637638207472196545L
sS'N'
L28104974437004992897022467202520618432818296908467973112378186608107529527156786978195597047749981280388024128563929020187211380253471270948491060583182620712063652703170999221160377780100077647737551145343407896114643714533475163002134464870690940053677053299545681081444297496614732992822450026641362203020797274174212717509184214540358898876003517910539453408351827135537614678706943177055970141834145289051517231681712094540950727597874938762458904345547079261157330926764453986991462763926480522528428711150473664185325378506630327491210755164340486615008359591281758665027847839670915848622965985718368450707861L
ssL21179825882929675759000863883427439272529684398938993530498341577873660234858405750918480510541863017796810403609202333542130871269431491818321235004134200572221581627671727564010215779151647105310802565518753390384403647688253250662920623105037318939964259207538298105667672173781642164283948853886864761809488004512524649293850990360419316658228259429887708830792277629762805239965737722042851372251752551839933532845091758873991853007152812216640331515364590649007957521012752192981619850952326023667882428701742296642993140775230721613974290546500088854912953793710195157690384877254997745569526537271444188314489L
(dp74
S'kbits'
p75
I1022
sS'e'
I65537
sS'd0'
p76
L17186520696248392559057343504020398893483996575062625793328931894635441952614455578498127292790015105448057724464996615309502351917060048666666951450807504644913698814560851512004944240144737676804053387268155693994068598513937293717379836710845653481547926779509639556784966204692949818637851764233416633345L
sS'N'
L21179825882929675759000863883427439272529684398938993530498341577873660234858405750918480510541863017796810403609202333542130871269431491818321235004134200572221581627671727564010215779151647105310802565518753390384403647688253250662920623105037318939964259207538298105667672173781642164283948853886864761809488004512524649293850990360419316658228259429887708830792277629762805239965737722042851372251752551839933532845091758873991853007152812216640331515364590649007957521012752192981619850952326023667882428701742296642993140775230721613974290546500088854912953793710195157690384877254997745569526537271444188314489L
ssL28665397579850760546201779770475406518231514746146462465887480319956175883200119995068999011204757924741441967311182136792517783857206508539965266140080582421816149053998553279024771241242544502896972715829692829796581124846449488796508236772172286270519756379085946238636969334054758486485874264474128233052183540582665391108925625154628047916403403508620398419812145665242551992942972602780703372266507296268364867707685573943407695466939628877886664158296186192344903592564982213362578936457872826978491061164083265489955751399542212443879367047613383298484254266891793608467707440208648921777877585389607485066053L
(dp77
S'kbits'
p78
I1020
sS'e'
I65537
sS'd0'
p79
L3991287885597193365164516971974348906172454850967489282776865254512679915273773457395866307539677331397040855721569834085476435928785453327716245627119549811571945253511689820674986812181518225162599352415849560068714512894572378771711964893641612241186113723423466266154158908341899639029484817392325739923L
sS'N'
L28665397579850760546201779770475406518231514746146462465887480319956175883200119995068999011204757924741441967311182136792517783857206508539965266140080582421816149053998553279024771241242544502896972715829692829796581124846449488796508236772172286270519756379085946238636969334054758486485874264474128233052183540582665391108925625154628047916403403508620398419812145665242551992942972602780703372266507296268364867707685573943407695466939628877886664158296186192344903592564982213362578936457872826978491061164083265489955751399542212443879367047613383298484254266891793608467707440208648921777877585389607485066053L
ssL24723257624503789995223138192389956788457374376352415809646231496837222248827780048996576670082052373935288629236539413511543230084947980837034730914347263118562813675697858169158623813882346101145729996946533489481715975347190251516366988447543934380728982896170559525856934381000970973663924114088986242244772732878852991116761992968143675938515201999271385955343794864423451885758690425366476970980952930812799451715803675908015573092137453408978220159647474616268753687418757653707291653603415307997912645425071301890461488792727917813453251904056054036504353551258922402129656796924576369428425052426127763120209L
(dp80
S'kbits'
p81
I1023
sS'e'
I65537
sS'd0'
p82
L39845135746715806532188628519161882391221095449017753043629126644745243052647545856166503382038078089185298088314559550265914915512907745209846108515393968355062298488508035194629954073439755668629115268509944032402253703534457837641272887140338320416478401869940302830152687692724836835375934332572384404001L
sS'N'
L24723257624503789995223138192389956788457374376352415809646231496837222248827780048996576670082052373935288629236539413511543230084947980837034730914347263118562813675697858169158623813882346101145729996946533489481715975347190251516366988447543934380728982896170559525856934381000970973663924114088986242244772732878852991116761992968143675938515201999271385955343794864423451885758690425366476970980952930812799451715803675908015573092137453408978220159647474616268753687418757653707291653603415307997912645425071301890461488792727917813453251904056054036504353551258922402129656796924576369428425052426127763120209L
ssL21659818369272485604726706414771926674123197919237065918698658404240454669171684106038935220803547885984160885269488826030274034411627039999241550180927990914576773690124760641892117916978719613858885562659478706722153708841914242114644122560477371263424200621126259052408948522750275099619289622707576050767716867859002804337033625830374594035170859328455862843094199134919332594527127349385363324639870680570679576924347583056337887129788772204592998870743453423794554531526901712365697699933891700165250646518612225736669027334897202659906373562586624879323033713867681906653439064002034353627876007169874822678587L
(dp83
S'kbits'
p84
I1022
sS'e'
I65537
sS'd0'
p85
L34569079023373592484987405082298031770629909308076072678244900713825004591457794394213703370929482246283794727315328688099480286649726226301818716730648163686324289901042814854021913303047536331389270771779820410601954464927026554371230037023413289383819447147816495252387909159601107478405075815588911888753L
sS'N'
L21659818369272485604726706414771926674123197919237065918698658404240454669171684106038935220803547885984160885269488826030274034411627039999241550180927990914576773690124760641892117916978719613858885562659478706722153708841914242114644122560477371263424200621126259052408948522750275099619289622707576050767716867859002804337033625830374594035170859328455862843094199134919332594527127349385363324639870680570679576924347583056337887129788772204592998870743453423794554531526901712365697699933891700165250646518612225736669027334897202659906373562586624879323033713867681906653439064002034353627876007169874822678587L
ssL19124088959046012917110254429761609476789118854366112576711517525708160823419168908455151552888328651856309145431461361665112154453285116299824010357928036423294334135220490692318959612687593423531180382093521462017942883713976816239677163899455345868428102205785245069533065595034132961638229464335001357945878798293658157422735333741550004860596579579103892628628726069303916847836586271736921762288113537333595641507377274092681255228706435651321464061270365652948032040079902651418391692878001829609171396483655488939156643468230266377134194389153310453872058540168699402327651657750250415744436800798374314734547L
(dp86
S'kbits'
p87
I1022
sS'e'
I65537
sS'd0'
p88
L13933563607033567248114827356659942993846935604284216667030986659946862499108280919374858461359940207764765151832668238757111408255020311644543187805229946876503436165339419686241643302938130907244768736031810958119500302168872909422838749920080663270580241216088923290505544524735453316303499102475726399533L
sS'N'
L19124088959046012917110254429761609476789118854366112576711517525708160823419168908455151552888328651856309145431461361665112154453285116299824010357928036423294334135220490692318959612687593423531180382093521462017942883713976816239677163899455345868428102205785245069533065595034132961638229464335001357945878798293658157422735333741550004860596579579103892628628726069303916847836586271736921762288113537333595641507377274092681255228706435651321464061270365652948032040079902651418391692878001829609171396483655488939156643468230266377134194389153310453872058540168699402327651657750250415744436800798374314734547L
ss.